; Function Attrs: nounwind uwtable
define ptr @Llb_ManPerformHints(ptr noundef %0, i32 noundef %1) local_unnamed_addr #1 {
  %3 = tail call ptr @Aig_ManDupDfs(ptr noundef %0) #15
  %4 = icmp sgt i32 %1, 0
  br i1 %4, label %.lr.ph, label %._crit_edge

.lr.ph:                                           ; preds = %2, %Llb_ManMaxFanoutCi.exit
  %.012 = phi ptr [ %18, %Llb_ManMaxFanoutCi.exit ], [ %3, %2 ]
  %.01011 = phi i32 [ %19, %Llb_ManMaxFanoutCi.exit ], [ 0, %2 ]
  %5 = getelementptr inbounds nuw i8, ptr %.012, i64 16
  %6 = load ptr, ptr %5, align 8
  %7 = getelementptr i8, ptr %6, i64 4
  %.val.i = load i32, ptr %7, align 4
  %8 = icmp sgt i32 %.val.i, 0
  br i1 %8, label %.lr.ph.i, label %Llb_ManMaxFanoutCi.exit

.lr.ph.i:                                         ; preds = %.lr.ph
  %9 = getelementptr i8, ptr %6, i64 8
  %.val12.i = load ptr, ptr %9, align 8
  %wide.trip.count.i = zext nneg i32 %.val.i to i64
  br label %10

10:                                               ; preds = %10, %.lr.ph.i
  %indvars.iv.i = phi i64 [ 0, %.lr.ph.i ], [ %indvars.iv.next.i, %10 ]
  %.018.i = phi i32 [ -1, %.lr.ph.i ], [ %spec.select15.i, %10 ]
  %.0917.i = phi i32 [ -1000000000, %.lr.ph.i ], [ %spec.select.i, %10 ]
  %11 = getelementptr inbounds nuw ptr, ptr %.val12.i, i64 %indvars.iv.i
  %12 = load ptr, ptr %11, align 8
  %13 = getelementptr i8, ptr %12, i64 24
  %.val13.i = load i64, ptr %13, align 8
  %14 = trunc i64 %.val13.i to i32
  %15 = lshr i32 %14, 6
  %16 = icmp slt i32 %.0917.i, %15
  %spec.select.i = tail call i32 @llvm.smax.i32(i32 %.0917.i, i32 %15)
  %17 = trunc nuw nsw i64 %indvars.iv.i to i32
  %spec.select15.i = select i1 %16, i32 %17, i32 %.018.i
  %indvars.iv.next.i = add nuw nsw i64 %indvars.iv.i, 1
  %exitcond.not.i = icmp eq i64 %indvars.iv.next.i, %wide.trip.count.i
  br i1 %exitcond.not.i, label %Llb_ManMaxFanoutCi.exit, label %10, !llvm.loop !4

Llb_ManMaxFanoutCi.exit:                          ; preds = %10, %.lr.ph
  %.0.lcssa.i = phi i32 [ -1, %.lr.ph ], [ %spec.select15.i, %10 ]
  tail call void (i32, ptr, ...) @Abc_Print(i32 poison, ptr noundef nonnull @.str, i32 noundef %.01011, i32 noundef %.0.lcssa.i)
  %18 = tail call ptr @Aig_ManDupCof(ptr noundef %.012, i32 noundef %.0.lcssa.i, i32 noundef 1) #15
  tail call void @Aig_ManStop(ptr noundef %.012) #15
  %19 = add nuw nsw i32 %.01011, 1
  %exitcond.not = icmp eq i32 %19, %1
  br i1 %exitcond.not, label %._crit_edge, label %.lr.ph, !llvm.loop !6

._crit_edge:                                      ; preds = %Llb_ManMaxFanoutCi.exit, %2
  %.0.lcssa = phi ptr [ %3, %2 ], [ %18, %Llb_ManMaxFanoutCi.exit ]
  ret ptr %.0.lcssa
}